; Function Attrs: nounwind uwtable
define internal ptr @CType_Type_repeat(ptr noundef %0, i64 noundef %1) #0 {
  %3 = icmp slt i64 %1, 0
  br i1 %3, label %4, label %7

4:                                                ; preds = %2
  %5 = load ptr, ptr @PyExc_ValueError, align 8, !tbaa !27
  %6 = tail call ptr (ptr, ptr, ...) @PyErr_Format(ptr noundef %5, ptr noundef nonnull @.str.19, i64 noundef %1) #17
  br label %12

7:                                                ; preds = %2
  %8 = getelementptr i8, ptr %0, i64 8
  %.val = load ptr, ptr %8, align 8, !tbaa !10
  %9 = tail call ptr @PyType_GetModuleByDef(ptr noundef %.val, ptr noundef nonnull @_ctypesmodule) #17
  %10 = getelementptr i8, ptr %9, i64 32
  %.val.i = load ptr, ptr %10, align 8, !tbaa !63
  %11 = tail call ptr @PyCArrayType_from_ctype(ptr noundef %.val.i, ptr noundef %0, i64 noundef %1)
  br label %12

12:                                               ; preds = %7, %4
  %.0 = phi ptr [ %6, %4 ], [ %11, %7 ]
  ret ptr %.0
}